target datalayout = "e-m:e-p270:32:32-p271:32:32-p272:64:64-i64:64-i128:128-f80:128-n8:16:32:64-S128"
target triple = "x86_64-unknown-linux-gnu"

%class.ref = type { ptr }
%class.statistics = type { %class.svector, %class.svector.0 }
%class.svector = type { %class.vector }
%class.vector = type { ptr }
%class.svector.0 = type { %class.vector.1 }
%class.vector.1 = type { ptr }
%"class.std::basic_ostream" = type { ptr, %"class.std::basic_ios" }
%"class.std::basic_ios" = type { %"class.std::ios_base", ptr, i8, i8, ptr, ptr, ptr, ptr }
%"class.std::ios_base" = type { ptr, i64, i64, i32, i32, i32, ptr, %"struct.std::ios_base::_Words", [8 x %"struct.std::ios_base::_Words"], i32, ptr, %"class.std::locale" }
%"struct.std::ios_base::_Words" = type { ptr, i64 }
%"class.std::locale" = type { ptr }

@_ZL5g_tac = internal global %class.ref zeroinitializer, align 8
@_ZL4g_st = internal global %class.statistics zeroinitializer, align 8
@_ZSt4cerr = external global %"class.std::basic_ostream", align 8
@_ZL8g_solver = internal global ptr null, align 8
@_ZSt4cout = external global %"class.std::basic_ostream", align 8
@g_display_statistics = external global i8, align 1
@_ZL12g_start_time = internal global i64 0, align 8
@.str.19 = private unnamed_addr constant [11 x i8] c"total time\00", align 1

; Function Attrs: mustprogress nounwind uwtable
define linkonce_odr hidden noundef ptr @_ZNK3refI6tacticEptEv(ptr noundef nonnull align 8 dereferenceable(8) %this) #4 comdat align 2 {
entry:
  %this.addr = alloca ptr, align 8
  store ptr %this, ptr %this.addr, align 8
  %this1 = load ptr, ptr %this.addr, align 8
  %m_ptr = getelementptr inbounds %class.ref, ptr %this1, i32 0, i32 0
  %0 = load ptr, ptr %m_ptr, align 8
  ret ptr %0
}

; Function Attrs: mustprogress nounwind uwtable
define linkonce_odr hidden noundef zeroext i1 @_ZNK3refI6tacticEcvbEv(ptr noundef nonnull align 8 dereferenceable(8) %this) #4 comdat align 2 {
entry:
  %this.addr = alloca ptr, align 8
  store ptr %this, ptr %this.addr, align 8
  %this1 = load ptr, ptr %this.addr, align 8
  %m_ptr = getelementptr inbounds %class.ref, ptr %this1, i32 0, i32 0
  %0 = load ptr, ptr %m_ptr, align 8
  %cmp = icmp ne ptr %0, null
  ret i1 %cmp
}

; Function Attrs: mustprogress uwtable
define internal void @_ZL18display_statisticsv() #5 {
entry:
  %end_time = alloca i64, align 8
  %call = call i64 @clock() #3
  store i64 %call, ptr %end_time, align 8
  %call1 = call noundef zeroext i1 @_ZNK3refI6tacticEcvbEv(ptr noundef nonnull align 8 dereferenceable(8) @_ZL5g_tac)
  br i1 %call1, label %land.lhs.true, label %if.end

land.lhs.true:                                    ; preds = %entry
  %0 = load i8, ptr @g_display_statistics, align 1
  %tobool = trunc i8 %0 to i1
  br i1 %tobool, label %if.then, label %if.end

if.then:                                          ; preds = %land.lhs.true
  %call2 = call noundef ptr @_ZNK3refI6tacticEptEv(ptr noundef nonnull align 8 dereferenceable(8) @_ZL5g_tac)
  %vtable = load ptr, ptr %call2, align 8
  %vfn = getelementptr inbounds ptr, ptr %vtable, i64 15
  %1 = load ptr, ptr %vfn, align 8
  call void %1(ptr noundef nonnull align 8 dereferenceable(12) %call2, ptr noundef nonnull align 8 dereferenceable(16) @_ZL4g_st)
  br label %if.end

if.end:                                           ; preds = %if.then, %land.lhs.true, %entry
  %2 = load ptr, ptr @_ZL8g_solver, align 8
  %tobool3 = icmp ne ptr %2, null
  br i1 %tobool3, label %land.lhs.true4, label %if.end11

land.lhs.true4:                                   ; preds = %if.end
  %3 = load i8, ptr @g_display_statistics, align 1
  %tobool5 = trunc i8 %3 to i1
  br i1 %tobool5, label %if.then6, label %if.end11

if.then6:                                         ; preds = %land.lhs.true4
  %call7 = call noundef nonnull align 8 dereferenceable(8) ptr @_ZNSo5flushEv(ptr noundef nonnull align 8 dereferenceable(8) @_ZSt4cout)
  %call8 = call noundef nonnull align 8 dereferenceable(8) ptr @_ZNSo5flushEv(ptr noundef nonnull align 8 dereferenceable(8) @_ZSt4cerr)
  %4 = load ptr, ptr @_ZL8g_solver, align 8
  call void @_ZNK3sat6solver18collect_statisticsER10statistics(ptr noundef nonnull align 8 dereferenceable(4408) %4, ptr noundef nonnull align 8 dereferenceable(16) @_ZL4g_st)
  %5 = load i64, ptr %end_time, align 8
  %conv = sitofp i64 %5 to double
  %6 = load i64, ptr @_ZL12g_start_time, align 8
  %conv9 = sitofp i64 %6 to double
  %sub = fsub double %conv, %conv9
  %div = fdiv double %sub, 1.000000e+06
  call void @_ZN10statistics6updateEPKcd(ptr noundef nonnull align 8 dereferenceable(16) @_ZL4g_st, ptr noundef @.str.19, double noundef %div)
  %call10 = call noundef nonnull align 8 dereferenceable(8) ptr @_ZNK10statistics12display_smt2ERSo(ptr noundef nonnull align 8 dereferenceable(16) @_ZL4g_st, ptr noundef nonnull align 8 dereferenceable(8) @_ZSt4cout)
  br label %if.end11

if.end11:                                         ; preds = %if.then6, %land.lhs.true4, %if.end
  store i8 0, ptr @g_display_statistics, align 1
  ret void
}